; Function Attrs: nounwind uwtable
define void @duckdb_je_background_thread_prefork1(ptr noundef %0) local_unnamed_addr #0 {
  %2 = load i64, ptr @duckdb_je_max_background_threads, align 8, !tbaa !16
  %.not = icmp eq i64 %2, 0
  br i1 %.not, label %._crit_edge, label %.lr.ph

._crit_edge:                                      ; preds = %.lr.ph, %1
  ret void

.lr.ph:                                           ; preds = %1, %.lr.ph
  %3 = phi i64 [ %7, %.lr.ph ], [ 0, %1 ]
  %.04 = phi i32 [ %6, %.lr.ph ], [ 0, %1 ]
  %4 = load ptr, ptr @duckdb_je_background_thread_info, align 8, !tbaa !17
  %5 = getelementptr inbounds nuw %struct.background_thread_info_s, ptr %4, i64 %3, i32 2
  tail call void @duckdb_je_malloc_mutex_prefork(ptr noundef %0, ptr noundef nonnull %5) #12
  %6 = add i32 %.04, 1
  %7 = zext i32 %6 to i64
  %8 = load i64, ptr @duckdb_je_max_background_threads, align 8, !tbaa !16
  %9 = icmp ugt i64 %8, %7
  br i1 %9, label %.lr.ph, label %._crit_edge
}